target datalayout = "e-m:e-p270:32:32-p271:32:32-p272:64:64-i64:64-f80:128-n8:16:32:64-S128"
target triple = "x86_64-pc-linux-gnu"

@.str = private unnamed_addr constant [3 x i8] c"NO\00", align 1
@.str.1 = private unnamed_addr constant [4 x i8] c"YES\00", align 1

; Function Attrs: noinline nounwind uwtable
define dso_local void @main() #0 {
  %1 = alloca i32, align 4
  %2 = alloca i32, align 4
  %3 = alloca i32, align 4
  %4 = alloca i32, align 4
  %5 = alloca i32, align 4
  %6 = alloca i32, align 4
  %7 = alloca [100 x i8], align 16
  store i32 0, i32* %3, align 4
  %8 = getelementptr inbounds [100 x i8], [100 x i8]* %7, i64 0, i64 0
  %9 = call i32 (i8*, ...) bitcast (i32 (...)* @gets to i32 (i8*, ...)*)(i8* %8)
  store i32 0, i32* %2, align 4
  br label %10

10:                                               ; preds = %27, %0
  %11 = load i32, i32* %2, align 4
  %12 = sext i32 %11 to i64
  %13 = getelementptr inbounds [100 x i8], [100 x i8]* %7, i64 0, i64 0
  %14 = call i64 @strlen(i8* %13) #3
  %15 = icmp ult i64 %12, %14
  br i1 %15, label %16, label %30

16:                                               ; preds = %10
  %17 = load i32, i32* %2, align 4
  %18 = sext i32 %17 to i64
  %19 = getelementptr inbounds [100 x i8], [100 x i8]* %7, i64 0, i64 %18
  %20 = load i8, i8* %19, align 1
  %21 = sext i8 %20 to i32
  %22 = icmp eq i32 %21, 32
  br i1 %22, label %23, label %25

23:                                               ; preds = %16
  %24 = load i32, i32* %2, align 4
  store i32 %24, i32* %4, align 4
  br label %26

25:                                               ; preds = %16
  br label %26

26:                                               ; preds = %25, %23
  br label %27

27:                                               ; preds = %26
  %28 = load i32, i32* %2, align 4
  %29 = add nsw i32 %28, 1
  store i32 %29, i32* %2, align 4
  br label %10

30:                                               ; preds = %10
  %31 = getelementptr inbounds [100 x i8], [100 x i8]* %7, i64 0, i64 0
  %32 = call i64 @strlen(i8* %31) #3
  %33 = load i32, i32* %4, align 4
  %34 = mul nsw i32 2, %33
  %35 = add nsw i32 %34, 1
  %36 = sext i32 %35 to i64
  %37 = icmp ne i64 %32, %36
  br i1 %37, label %38, label %40

38:                                               ; preds = %30
  %39 = call i32 (i8*, ...) @printf(i8* getelementptr inbounds ([3 x i8], [3 x i8]* @.str, i64 0, i64 0))
  br label %208

40:                                               ; preds = %30
  store i32 0, i32* %1, align 4
  br label %41

41:                                               ; preds = %107, %40
  %42 = load i32, i32* %1, align 4
  %43 = load i32, i32* %4, align 4
  %44 = sub nsw i32 %43, 1
  %45 = icmp slt i32 %42, %44
  br i1 %45, label %46, label %110

46:                                               ; preds = %41
  store i32 0, i32* %2, align 4
  br label %47

47:                                               ; preds = %103, %46
  %48 = load i32, i32* %2, align 4
  %49 = load i32, i32* %4, align 4
  %50 = sub nsw i32 %49, 1
  %51 = load i32, i32* %1, align 4
  %52 = sub nsw i32 %50, %51
  %53 = icmp slt i32 %48, %52
  br i1 %53, label %54, label %106

54:                                               ; preds = %47
  %55 = load i32, i32* %2, align 4
  %56 = load i32, i32* %4, align 4
  %57 = add nsw i32 %55, %56
  %58 = add nsw i32 %57, 1
  %59 = sext i32 %58 to i64
  %60 = getelementptr inbounds [100 x i8], [100 x i8]* %7, i64 0, i64 %59
  %61 = load i8, i8* %60, align 1
  %62 = sext i8 %61 to i32
  %63 = load i32, i32* %2, align 4
  %64 = add nsw i32 %63, 2
  %65 = load i32, i32* %4, align 4
  %66 = add nsw i32 %64, %65
  %67 = sext i32 %66 to i64
  %68 = getelementptr inbounds [100 x i8], [100 x i8]* %7, i64 0, i64 %67
  %69 = load i8, i8* %68, align 1
  %70 = sext i8 %69 to i32
  %71 = icmp sgt i32 %62, %70
  br i1 %71, label %72, label %102

72:                                               ; preds = %54
  %73 = load i32, i32* %2, align 4
  %74 = load i32, i32* %4, align 4
  %75 = add nsw i32 %73, %74
  %76 = add nsw i32 %75, 1
  %77 = sext i32 %76 to i64
  %78 = getelementptr inbounds [100 x i8], [100 x i8]* %7, i64 0, i64 %77
  %79 = load i8, i8* %78, align 1
  %80 = sext i8 %79 to i32
  store i32 %80, i32* %6, align 4
  %81 = load i32, i32* %2, align 4
  %82 = load i32, i32* %4, align 4
  %83 = add nsw i32 %81, %82
  %84 = add nsw i32 %83, 2
  %85 = sext i32 %84 to i64
  %86 = getelementptr inbounds [100 x i8], [100 x i8]* %7, i64 0, i64 %85
  %87 = load i8, i8* %86, align 1
  %88 = load i32, i32* %2, align 4
  %89 = load i32, i32* %4, align 4
  %90 = add nsw i32 %88, %89
  %91 = add nsw i32 %90, 1
  %92 = sext i32 %91 to i64
  %93 = getelementptr inbounds [100 x i8], [100 x i8]* %7, i64 0, i64 %92
  store i8 %87, i8* %93, align 1
  %94 = load i32, i32* %6, align 4
  %95 = trunc i32 %94 to i8
  %96 = load i32, i32* %2, align 4
  %97 = add nsw i32 %96, 2
  %98 = load i32, i32* %4, align 4
  %99 = add nsw i32 %97, %98
  %100 = sext i32 %99 to i64
  %101 = getelementptr inbounds [100 x i8], [100 x i8]* %7, i64 0, i64 %100
  store i8 %95, i8* %101, align 1
  br label %102

102:                                              ; preds = %72, %54
  br label %103

103:                                              ; preds = %102
  %104 = load i32, i32* %2, align 4
  %105 = add nsw i32 %104, 1
  store i32 %105, i32* %2, align 4
  br label %47

106:                                              ; preds = %47
  br label %107

107:                                              ; preds = %106
  %108 = load i32, i32* %1, align 4
  %109 = add nsw i32 %108, 1
  store i32 %109, i32* %1, align 4
  br label %41

110:                                              ; preds = %41
  store i32 0, i32* %1, align 4
  br label %111

111:                                              ; preds = %162, %110
  %112 = load i32, i32* %1, align 4
  %113 = load i32, i32* %4, align 4
  %114 = sub nsw i32 %113, 1
  %115 = icmp slt i32 %112, %114
  br i1 %115, label %116, label %165

116:                                              ; preds = %111
  store i32 0, i32* %2, align 4
  br label %117

117:                                              ; preds = %158, %116
  %118 = load i32, i32* %2, align 4
  %119 = load i32, i32* %4, align 4
  %120 = load i32, i32* %1, align 4
  %121 = sub nsw i32 %119, %120
  %122 = sub nsw i32 %121, 1
  %123 = icmp slt i32 %118, %122
  br i1 %123, label %124, label %161

124:                                              ; preds = %117
  %125 = load i32, i32* %2, align 4
  %126 = sext i32 %125 to i64
  %127 = getelementptr inbounds [100 x i8], [100 x i8]* %7, i64 0, i64 %126
  %128 = load i8, i8* %127, align 1
  %129 = sext i8 %128 to i32
  %130 = load i32, i32* %2, align 4
  %131 = add nsw i32 %130, 1
  %132 = sext i32 %131 to i64
  %133 = getelementptr inbounds [100 x i8], [100 x i8]* %7, i64 0, i64 %132
  %134 = load i8, i8* %133, align 1
  %135 = sext i8 %134 to i32
  %136 = icmp sgt i32 %129, %135
  br i1 %136, label %137, label %157

137:                                              ; preds = %124
  %138 = load i32, i32* %2, align 4
  %139 = sext i32 %138 to i64
  %140 = getelementptr inbounds [100 x i8], [100 x i8]* %7, i64 0, i64 %139
  %141 = load i8, i8* %140, align 1
  %142 = sext i8 %141 to i32
  store i32 %142, i32* %5, align 4
  %143 = load i32, i32* %2, align 4
  %144 = add nsw i32 %143, 1
  %145 = sext i32 %144 to i64
  %146 = getelementptr inbounds [100 x i8], [100 x i8]* %7, i64 0, i64 %145
  %147 = load i8, i8* %146, align 1
  %148 = load i32, i32* %2, align 4
  %149 = sext i32 %148 to i64
  %150 = getelementptr inbounds [100 x i8], [100 x i8]* %7, i64 0, i64 %149
  store i8 %147, i8* %150, align 1
  %151 = load i32, i32* %5, align 4
  %152 = trunc i32 %151 to i8
  %153 = load i32, i32* %2, align 4
  %154 = add nsw i32 %153, 1
  %155 = sext i32 %154 to i64
  %156 = getelementptr inbounds [100 x i8], [100 x i8]* %7, i64 0, i64 %155
  store i8 %152, i8* %156, align 1
  br label %157

157:                                              ; preds = %137, %124
  br label %158

158:                                              ; preds = %157
  %159 = load i32, i32* %2, align 4
  %160 = add nsw i32 %159, 1
  store i32 %160, i32* %2, align 4
  br label %117

161:                                              ; preds = %117
  br label %162

162:                                              ; preds = %161
  %163 = load i32, i32* %1, align 4
  %164 = add nsw i32 %163, 1
  store i32 %164, i32* %1, align 4
  br label %111

165:                                              ; preds = %111
  store i32 0, i32* %1, align 4
  %166 = load i32, i32* %4, align 4
  %167 = add nsw i32 %166, 1
  store i32 %167, i32* %2, align 4
  br label %168

168:                                              ; preds = %194, %165
  %169 = load i32, i32* %1, align 4
  %170 = load i32, i32* %4, align 4
  %171 = icmp slt i32 %169, %170
  %172 = zext i1 %171 to i32
  %173 = load i32, i32* %2, align 4
  %174 = sext i32 %173 to i64
  %175 = getelementptr inbounds [100 x i8], [100 x i8]* %7, i64 0, i64 0
  %176 = call i64 @strlen(i8* %175) #3
  %177 = icmp ult i64 %174, %176
  br i1 %177, label %178, label %199

178:                                              ; preds = %168
  %179 = load i32, i32* %1, align 4
  %180 = sext i32 %179 to i64
  %181 = getelementptr inbounds [100 x i8], [100 x i8]* %7, i64 0, i64 %180
  %182 = load i8, i8* %181, align 1
  %183 = sext i8 %182 to i32
  %184 = load i32, i32* %2, align 4
  %185 = sext i32 %184 to i64
  %186 = getelementptr inbounds [100 x i8], [100 x i8]* %7, i64 0, i64 %185
  %187 = load i8, i8* %186, align 1
  %188 = sext i8 %187 to i32
  %189 = icmp eq i32 %183, %188
  br i1 %189, label %190, label %193

190:                                              ; preds = %178
  %191 = load i32, i32* %3, align 4
  %192 = add nsw i32 %191, 1
  store i32 %192, i32* %3, align 4
  br label %193

193:                                              ; preds = %190, %178
  br label %194

194:                                              ; preds = %193
  %195 = load i32, i32* %1, align 4
  %196 = add nsw i32 %195, 1
  store i32 %196, i32* %1, align 4
  %197 = load i32, i32* %2, align 4
  %198 = add nsw i32 %197, 1
  store i32 %198, i32* %2, align 4
  br label %168

199:                                              ; preds = %168
  %200 = load i32, i32* %3, align 4
  %201 = load i32, i32* %4, align 4
  %202 = icmp eq i32 %200, %201
  br i1 %202, label %203, label %205

203:                                              ; preds = %199
  %204 = call i32 (i8*, ...) @printf(i8* getelementptr inbounds ([4 x i8], [4 x i8]* @.str.1, i64 0, i64 0))
  br label %207

205:                                              ; preds = %199
  %206 = call i32 (i8*, ...) @printf(i8* getelementptr inbounds ([3 x i8], [3 x i8]* @.str, i64 0, i64 0))
  br label %207

207:                                              ; preds = %205, %203
  br label %208

208:                                              ; preds = %207, %38
  ret void
}